; ModuleID = 'source-C-CXX/55/2411.cpp'
source_filename = "source-C-CXX/55/2411.cpp"
target datalayout = "e-m:e-p270:32:32-p271:32:32-p272:64:64-i64:64-f80:128-n8:16:32:64-S128"
target triple = "x86_64-pc-linux-gnu"

%"class.std::ios_base::Init" = type { i8 }
%"class.std::basic_istream" = type { i32 (...)**, i64, %"class.std::basic_ios" }
%"class.std::basic_ios" = type { %"class.std::ios_base", %"class.std::basic_ostream"*, i8, i8, %"class.std::basic_streambuf"*, %"class.std::ctype"*, %"class.std::num_put"*, %"class.std::num_get"* }
%"class.std::ios_base" = type { i32 (...)**, i64, i64, i32, i32, i32, %"struct.std::ios_base::_Callback_list"*, %"struct.std::ios_base::_Words", [8 x %"struct.std::ios_base::_Words"], i32, %"struct.std::ios_base::_Words"*, %"class.std::locale" }
%"struct.std::ios_base::_Callback_list" = type { %"struct.std::ios_base::_Callback_list"*, void (i32, %"class.std::ios_base"*, i32)*, i32, i32 }
%"struct.std::ios_base::_Words" = type { i8*, i64 }
%"class.std::locale" = type { %"class.std::locale::_Impl"* }
%"class.std::locale::_Impl" = type { i32, %"class.std::locale::facet"**, i64, %"class.std::locale::facet"**, i8** }
%"class.std::locale::facet" = type <{ i32 (...)**, i32, [4 x i8] }>
%"class.std::basic_ostream" = type { i32 (...)**, %"class.std::basic_ios" }
%"class.std::basic_streambuf" = type { i32 (...)**, i8*, i8*, i8*, i8*, i8*, i8*, %"class.std::locale" }
%"class.std::ctype" = type <{ %"class.std::locale::facet.base", [4 x i8], %struct.__locale_struct*, i8, [7 x i8], i32*, i32*, i16*, i8, [256 x i8], [256 x i8], i8, [6 x i8] }>
%"class.std::locale::facet.base" = type <{ i32 (...)**, i32 }>
%struct.__locale_struct = type { [13 x %struct.__locale_data*], i16*, i32*, i32*, [13 x i8*] }
%struct.__locale_data = type opaque
%"class.std::num_put" = type { %"class.std::locale::facet.base", [4 x i8] }
%"class.std::num_get" = type { %"class.std::locale::facet.base", [4 x i8] }

@_ZStL8__ioinit = internal global %"class.std::ios_base::Init" zeroinitializer, align 1
@__dso_handle = external hidden global i8
@_ZSt3cin = external global %"class.std::basic_istream", align 8
@_ZSt4cout = external global %"class.std::basic_ostream", align 8
@llvm.global_ctors = appending global [1 x { i32, void ()*, i8* }] [{ i32, void ()*, i8* } { i32 65535, void ()* @_GLOBAL__sub_I_2411.cpp, i8* null }]

declare void @_ZNSt8ios_base4InitC1Ev(%"class.std::ios_base::Init"* nonnull align 1 dereferenceable(1)) unnamed_addr #0

; Function Attrs: nounwind
declare void @_ZNSt8ios_base4InitD1Ev(%"class.std::ios_base::Init"* nonnull align 1 dereferenceable(1)) unnamed_addr #1

; Function Attrs: nofree nounwind
declare i32 @__cxa_atexit(void (i8*)*, i8*, i8*) local_unnamed_addr #2

; Function Attrs: mustprogress norecurse sspstrong uwtable
define dso_local i32 @main() local_unnamed_addr #3 {
  %1 = alloca i32, align 4
  %2 = bitcast i32* %1 to i8*
  call void @llvm.lifetime.start.p0i8(i64 4, i8* nonnull %2) #7
  %3 = call nonnull align 8 dereferenceable(16) %"class.std::basic_istream"* @_ZNSirsERi(%"class.std::basic_istream"* nonnull align 8 dereferenceable(16) @_ZSt3cin, i32* nonnull align 4 dereferenceable(4) %1)
  %4 = load i32, i32* %1, align 4, !tbaa !5
  %5 = sdiv i32 %4, 10000
  %6 = mul nsw i32 %5, -10000
  %7 = add i32 %6, %4
  %8 = sdiv i32 %7, 1000
  %9 = mul nsw i32 %8, -1000
  %10 = add i32 %9, %7
  %11 = sdiv i32 %10, 100
  %12 = mul nsw i32 %11, 100
  %13 = srem i32 %10, 100
  %14 = sdiv i32 %13, 10
  %15 = srem i32 %4, 10
  %16 = add i32 %4, 9999
  %17 = icmp ult i32 %16, 19999
  br i1 %17, label %26, label %18

18:                                               ; preds = %0
  %19 = mul nsw i32 %15, 10000
  %20 = mul nsw i32 %14, 1000
  %21 = mul nsw i32 %8, 10
  %22 = add nsw i32 %19, %5
  %23 = add nsw i32 %22, %21
  %24 = add i32 %23, %12
  %25 = add i32 %24, %20
  br label %50

26:                                               ; preds = %0
  %27 = add i32 %7, 999
  %28 = icmp ult i32 %27, 1999
  br i1 %28, label %36, label %29

29:                                               ; preds = %26
  %30 = mul nsw i32 %15, 1000
  %31 = mul nsw i32 %14, 100
  %32 = mul nsw i32 %11, 10
  %33 = add nsw i32 %8, %30
  %34 = add nsw i32 %33, %32
  %35 = add i32 %34, %31
  br label %50

36:                                               ; preds = %26
  %37 = add i32 %10, 99
  %38 = icmp ult i32 %37, 199
  br i1 %38, label %44, label %39

39:                                               ; preds = %36
  %40 = mul nsw i32 %15, 100
  %41 = mul nsw i32 %14, 10
  %42 = add nsw i32 %11, %40
  %43 = add i32 %42, %41
  br label %50

44:                                               ; preds = %36
  %45 = add i32 %13, 9
  %46 = icmp ult i32 %45, 19
  br i1 %46, label %50, label %47

47:                                               ; preds = %44
  %48 = mul nsw i32 %15, 10
  %49 = add nsw i32 %14, %48
  br label %50

50:                                               ; preds = %44, %29, %47, %39, %18
  %51 = phi i32 [ %25, %18 ], [ %35, %29 ], [ %43, %39 ], [ %49, %47 ], [ %15, %44 ]
  %52 = call nonnull align 8 dereferenceable(8) %"class.std::basic_ostream"* @_ZNSolsEi(%"class.std::basic_ostream"* nonnull align 8 dereferenceable(8) @_ZSt4cout, i32 %51)
  %53 = bitcast %"class.std::basic_ostream"* %52 to i8**
  %54 = load i8*, i8** %53, align 8, !tbaa !9
  %55 = getelementptr i8, i8* %54, i64 -24
  %56 = bitcast i8* %55 to i64*
  %57 = load i64, i64* %56, align 8
  %58 = bitcast %"class.std::basic_ostream"* %52 to i8*
  %59 = add nsw i64 %57, 240
  %60 = getelementptr inbounds i8, i8* %58, i64 %59
  %61 = bitcast i8* %60 to %"class.std::ctype"**
  %62 = load %"class.std::ctype"*, %"class.std::ctype"** %61, align 8, !tbaa !11
  %63 = icmp eq %"class.std::ctype"* %62, null
  br i1 %63, label %64, label %65

64:                                               ; preds = %50
  call void @_ZSt16__throw_bad_castv() #8
  unreachable

65:                                               ; preds = %50
  %66 = getelementptr inbounds %"class.std::ctype", %"class.std::ctype"* %62, i64 0, i32 8
  %67 = load i8, i8* %66, align 8, !tbaa !15
  %68 = icmp eq i8 %67, 0
  br i1 %68, label %72, label %69

69:                                               ; preds = %65
  %70 = getelementptr inbounds %"class.std::ctype", %"class.std::ctype"* %62, i64 0, i32 9, i64 10
  %71 = load i8, i8* %70, align 1, !tbaa !17
  br label %78

72:                                               ; preds = %65
  call void @_ZNKSt5ctypeIcE13_M_widen_initEv(%"class.std::ctype"* nonnull align 8 dereferenceable(570) %62)
  %73 = bitcast %"class.std::ctype"* %62 to i8 (%"class.std::ctype"*, i8)***
  %74 = load i8 (%"class.std::ctype"*, i8)**, i8 (%"class.std::ctype"*, i8)*** %73, align 8, !tbaa !9
  %75 = getelementptr inbounds i8 (%"class.std::ctype"*, i8)*, i8 (%"class.std::ctype"*, i8)** %74, i64 6
  %76 = load i8 (%"class.std::ctype"*, i8)*, i8 (%"class.std::ctype"*, i8)** %75, align 8
  %77 = call signext i8 %76(%"class.std::ctype"* nonnull align 8 dereferenceable(570) %62, i8 signext 10)
  br label %78

78:                                               ; preds = %69, %72
  %79 = phi i8 [ %71, %69 ], [ %77, %72 ]
  %80 = call nonnull align 8 dereferenceable(8) %"class.std::basic_ostream"* @_ZNSo3putEc(%"class.std::basic_ostream"* nonnull align 8 dereferenceable(8) %52, i8 signext %79)
  %81 = call nonnull align 8 dereferenceable(8) %"class.std::basic_ostream"* @_ZNSo5flushEv(%"class.std::basic_ostream"* nonnull align 8 dereferenceable(8) %80)
  call void @llvm.lifetime.end.p0i8(i64 4, i8* nonnull %2) #7
  ret i32 0
}

; Function Attrs: argmemonly mustprogress nofree nosync nounwind willreturn
declare void @llvm.lifetime.start.p0i8(i64 immarg, i8* nocapture) #4

declare nonnull align 8 dereferenceable(16) %"class.std::basic_istream"* @_ZNSirsERi(%"class.std::basic_istream"* nonnull align 8 dereferenceable(16), i32* nonnull align 4 dereferenceable(4)) local_unnamed_addr #0

declare nonnull align 8 dereferenceable(8) %"class.std::basic_ostream"* @_ZNSolsEi(%"class.std::basic_ostream"* nonnull align 8 dereferenceable(8), i32) local_unnamed_addr #0

; Function Attrs: argmemonly mustprogress nofree nosync nounwind willreturn
declare void @llvm.lifetime.end.p0i8(i64 immarg, i8* nocapture) #4

declare nonnull align 8 dereferenceable(8) %"class.std::basic_ostream"* @_ZNSo3putEc(%"class.std::basic_ostream"* nonnull align 8 dereferenceable(8), i8 signext) local_unnamed_addr #0

declare nonnull align 8 dereferenceable(8) %"class.std::basic_ostream"* @_ZNSo5flushEv(%"class.std::basic_ostream"* nonnull align 8 dereferenceable(8)) local_unnamed_addr #0

; Function Attrs: noreturn
declare void @_ZSt16__throw_bad_castv() local_unnamed_addr #5

declare void @_ZNKSt5ctypeIcE13_M_widen_initEv(%"class.std::ctype"* nonnull align 8 dereferenceable(570)) local_unnamed_addr #0

; Function Attrs: sspstrong uwtable
define internal void @_GLOBAL__sub_I_2411.cpp() #6 section ".text.startup" {
  tail call void @_ZNSt8ios_base4InitC1Ev(%"class.std::ios_base::Init"* nonnull align 1 dereferenceable(1) @_ZStL8__ioinit)
  %1 = tail call i32 @__cxa_atexit(void (i8*)* bitcast (void (%"class.std::ios_base::Init"*)* @_ZNSt8ios_base4InitD1Ev to void (i8*)*), i8* getelementptr inbounds (%"class.std::ios_base::Init", %"class.std::ios_base::Init"* @_ZStL8__ioinit, i64 0, i32 0), i8* nonnull @__dso_handle) #7
  ret void
}


!llvm.module.flags = !{!0, !1, !2, !3}
!llvm.ident = !{!4}

!0 = !{i32 1, !"wchar_size", i32 4}
!1 = !{i32 7, !"PIC Level", i32 2}
!2 = !{i32 7, !"PIE Level", i32 2}
!3 = !{i32 7, !"uwtable", i32 1}
!4 = !{!"clang version 13.0.0"}
!5 = !{!6, !6, i64 0}
!6 = !{!"int", !7, i64 0}
!7 = !{!"omnipotent char", !8, i64 0}
!8 = !{!"Simple C++ TBAA"}
!9 = !{!10, !10, i64 0}
!10 = !{!"vtable pointer", !8, i64 0}
!11 = !{!12, !13, i64 240}
!12 = !{!"_ZTSSt9basic_iosIcSt11char_traitsIcEE", !13, i64 216, !7, i64 224, !14, i64 225, !13, i64 232, !13, i64 240, !13, i64 248, !13, i64 256}
!13 = !{!"any pointer", !7, i64 0}
!14 = !{!"bool", !7, i64 0}
!15 = !{!16, !7, i64 56}
!16 = !{!"_ZTSSt5ctypeIcE", !13, i64 16, !14, i64 24, !13, i64 32, !13, i64 40, !13, i64 48, !7, i64 56, !7, i64 57, !7, i64 313, !7, i64 569}
!17 = !{!7, !7, i64 0}
